; Function Attrs: nounwind sspstrong uwtable
define hidden void @rb_replace_generic_ivar(i64 noundef %0, i64 noundef %1) local_unnamed_addr #0 {
  %3 = alloca i32, align 4
  %4 = alloca i64, align 8
  %5 = alloca i64, align 8
  call void @llvm.lifetime.start.p0(i64 4, ptr nonnull %3) #27
  %6 = load ptr, ptr @ruby_single_main_ractor, align 8, !tbaa !68
  %.not.i.i = icmp eq ptr %6, null
  br i1 %.not.i.i, label %7, label %rb_vm_lock_enter.exit

7:                                                ; preds = %2
  call void @rb_vm_lock_enter_body(ptr noundef nonnull %3) #27
  br label %rb_vm_lock_enter.exit

rb_vm_lock_enter.exit:                            ; preds = %2, %7
  call void @llvm.lifetime.start.p0(i64 8, ptr nonnull %4) #27
  call void @llvm.lifetime.start.p0(i64 8, ptr nonnull %5) #27
  store i64 %1, ptr %5, align 8, !tbaa !14
  %8 = load ptr, ptr @generic_iv_tbl_, align 8, !tbaa !12
  %9 = call i32 @rb_st_lookup(ptr noundef %8, i64 noundef %1, ptr noundef nonnull %4) #27
  %.not = icmp eq i32 %9, 0
  br i1 %.not, label %27, label %10

10:                                               ; preds = %rb_vm_lock_enter.exit
  %11 = load ptr, ptr @generic_iv_tbl_, align 8, !tbaa !12
  %12 = load i64, ptr %4, align 8, !tbaa !14
  %13 = call i32 @rb_st_insert(ptr noundef %11, i64 noundef %0, i64 noundef %12) #27
  %14 = load ptr, ptr @generic_iv_tbl_, align 8, !tbaa !12
  %15 = call i32 @rb_st_delete(ptr noundef %14, ptr noundef nonnull %5, ptr noundef null) #27
  call void @llvm.lifetime.end.p0(i64 8, ptr nonnull %5) #27
  call void @llvm.lifetime.end.p0(i64 8, ptr nonnull %4) #27
  %16 = load ptr, ptr @ruby_single_main_ractor, align 8, !tbaa !68
  %.not.i.i4 = icmp eq ptr %16, null
  br i1 %.not.i.i4, label %17, label %rb_vm_lock_leave.exit

17:                                               ; preds = %10
  call void @rb_vm_lock_leave_body(ptr noundef nonnull %3) #27
  br label %rb_vm_lock_leave.exit

rb_vm_lock_leave.exit:                            ; preds = %10, %17
  call void @llvm.lifetime.end.p0(i64 4, ptr nonnull %3) #27
  %18 = icmp eq i64 %0, 0
  %19 = and i64 %0, 7
  %20 = icmp ne i64 %19, 0
  %21 = or i1 %18, %20
  br i1 %21, label %RB_FL_SET.exit, label %RB_FL_ABLE.exit.i

RB_FL_ABLE.exit.i:                                ; preds = %rb_vm_lock_leave.exit
  %22 = inttoptr i64 %0 to ptr
  %23 = load i64, ptr %22, align 8, !tbaa !28
  %24 = and i64 %23, 31
  %.not.i = icmp eq i64 %24, 27
  br i1 %.not.i, label %RB_FL_SET.exit, label %25

25:                                               ; preds = %RB_FL_ABLE.exit.i
  %26 = or i64 %23, 1024
  store i64 %26, ptr %22, align 8, !tbaa !28
  br label %RB_FL_SET.exit

RB_FL_SET.exit:                                   ; preds = %rb_vm_lock_leave.exit, %RB_FL_ABLE.exit.i, %25
  ret void

27:                                               ; preds = %rb_vm_lock_enter.exit
  call void (ptr, ...) @rb_bug(ptr noundef nonnull @.str.18) #35
  unreachable
}